target datalayout = "e-m:e-p270:32:32-p271:32:32-p272:64:64-i64:64-i128:128-f80:128-n8:16:32:64-S128"
target triple = "x86_64-unknown-linux-gnu"

%"struct.OpenImageIO_v2_6_0::TypeDesc" = type { i8, i8, i8, i8, i32 }
%"class.OpenImageIO_v2_6_0::ImageSpec" = type { i32, i32, i32, i32, i32, i32, i32, i32, i32, i32, i32, i32, i32, i32, i32, i32, %"struct.OpenImageIO_v2_6_0::TypeDesc", %"class.std::vector", %"class.std::vector.3", i32, i32, i8, %"class.OpenImageIO_v2_6_0::ParamValueList" }
%"class.std::vector" = type { %"struct.std::_Vector_base" }
%"struct.std::_Vector_base" = type { %"struct.std::_Vector_base<OpenImageIO_v2_6_0::TypeDesc, std::allocator<OpenImageIO_v2_6_0::TypeDesc>>::_Vector_impl" }
%"struct.std::_Vector_base<OpenImageIO_v2_6_0::TypeDesc, std::allocator<OpenImageIO_v2_6_0::TypeDesc>>::_Vector_impl" = type { %"struct.std::_Vector_base<OpenImageIO_v2_6_0::TypeDesc, std::allocator<OpenImageIO_v2_6_0::TypeDesc>>::_Vector_impl_data" }
%"struct.std::_Vector_base<OpenImageIO_v2_6_0::TypeDesc, std::allocator<OpenImageIO_v2_6_0::TypeDesc>>::_Vector_impl_data" = type { ptr, ptr, ptr }
%"class.std::vector.3" = type { %"struct.std::_Vector_base.4" }
%"struct.std::_Vector_base.4" = type { %"struct.std::_Vector_base<std::__cxx11::basic_string<char>, std::allocator<std::__cxx11::basic_string<char>>>::_Vector_impl" }
%"struct.std::_Vector_base<std::__cxx11::basic_string<char>, std::allocator<std::__cxx11::basic_string<char>>>::_Vector_impl" = type { %"struct.std::_Vector_base<std::__cxx11::basic_string<char>, std::allocator<std::__cxx11::basic_string<char>>>::_Vector_impl_data" }
%"struct.std::_Vector_base<std::__cxx11::basic_string<char>, std::allocator<std::__cxx11::basic_string<char>>>::_Vector_impl_data" = type { ptr, ptr, ptr }
%"class.OpenImageIO_v2_6_0::ParamValueList" = type { %"class.std::vector.8" }
%"class.std::vector.8" = type { %"struct.std::_Vector_base.9" }
%"struct.std::_Vector_base.9" = type { %"struct.std::_Vector_base<OpenImageIO_v2_6_0::ParamValue, std::allocator<OpenImageIO_v2_6_0::ParamValue>>::_Vector_impl" }
%"struct.std::_Vector_base<OpenImageIO_v2_6_0::ParamValue, std::allocator<OpenImageIO_v2_6_0::ParamValue>>::_Vector_impl" = type { %"struct.std::_Vector_base<OpenImageIO_v2_6_0::ParamValue, std::allocator<OpenImageIO_v2_6_0::ParamValue>>::_Vector_impl_data" }
%"struct.std::_Vector_base<OpenImageIO_v2_6_0::ParamValue, std::allocator<OpenImageIO_v2_6_0::ParamValue>>::_Vector_impl_data" = type { ptr, ptr, ptr }
%"class.__gnu_cxx::__normal_iterator.162" = type { ptr }

; Function Attrs: mustprogress nounwind uwtable
define linkonce_odr noundef nonnull align 8 dereferenceable(8) ptr @_ZNK9__gnu_cxx17__normal_iteratorIPKN18OpenImageIO_v2_6_08TypeDescESt6vectorIS2_SaIS2_EEE4baseEv(ptr noundef nonnull align 8 dereferenceable(8) %this) #4 comdat align 2 {
entry:
  %this.addr = alloca ptr, align 8
  store ptr %this, ptr %this.addr, align 8
  %this1 = load ptr, ptr %this.addr, align 8
  %_M_current = getelementptr inbounds %"class.__gnu_cxx::__normal_iterator.162", ptr %this1, i32 0, i32 0
  ret ptr %_M_current
}

; Function Attrs: mustprogress nounwind uwtable
define linkonce_odr void @_ZN9__gnu_cxx17__normal_iteratorIPKN18OpenImageIO_v2_6_08TypeDescESt6vectorIS2_SaIS2_EEEC2ERKS4_(ptr noundef nonnull align 8 dereferenceable(8) %this, ptr noundef nonnull align 8 dereferenceable(8) %__i) unnamed_addr #4 comdat align 2 {
entry:
  %this.addr = alloca ptr, align 8
  %__i.addr = alloca ptr, align 8
  store ptr %this, ptr %this.addr, align 8
  store ptr %__i, ptr %__i.addr, align 8
  %this1 = load ptr, ptr %this.addr, align 8
  %_M_current = getelementptr inbounds %"class.__gnu_cxx::__normal_iterator.162", ptr %this1, i32 0, i32 0
  %0 = load ptr, ptr %__i.addr, align 8
  %1 = load ptr, ptr %0, align 8
  store ptr %1, ptr %_M_current, align 8
  ret void
}

; Function Attrs: mustprogress nounwind uwtable
define linkonce_odr noundef i64 @_ZNK18OpenImageIO_v2_6_08TypeDesc11elementsizeEv(ptr noundef nonnull align 4 dereferenceable(8) %this) #4 comdat align 2 {
entry:
  %this.addr = alloca ptr, align 8
  store ptr %this, ptr %this.addr, align 8
  %this1 = load ptr, ptr %this.addr, align 8
  %aggregate = getelementptr inbounds %"struct.OpenImageIO_v2_6_0::TypeDesc", ptr %this1, i32 0, i32 1
  %0 = load i8, ptr %aggregate, align 1
  %conv = zext i8 %0 to i64
  %call = call noundef i64 @_ZNK18OpenImageIO_v2_6_08TypeDesc8basesizeEv(ptr noundef nonnull align 4 dereferenceable(8) %this1) #3
  %mul = mul i64 %conv, %call
  ret i64 %mul
}

; Function Attrs: mustprogress nounwind uwtable
define linkonce_odr noundef zeroext i1 @_ZN9__gnu_cxxeqIPKN18OpenImageIO_v2_6_08TypeDescESt6vectorIS2_SaIS2_EEEEbRKNS_17__normal_iteratorIT_T0_EESD_(ptr noundef nonnull align 8 dereferenceable(8) %__lhs, ptr noundef nonnull align 8 dereferenceable(8) %__rhs) #4 comdat {
entry:
  %__lhs.addr = alloca ptr, align 8
  %__rhs.addr = alloca ptr, align 8
  store ptr %__lhs, ptr %__lhs.addr, align 8
  store ptr %__rhs, ptr %__rhs.addr, align 8
  %0 = load ptr, ptr %__lhs.addr, align 8
  %call = call noundef nonnull align 8 dereferenceable(8) ptr @_ZNK9__gnu_cxx17__normal_iteratorIPKN18OpenImageIO_v2_6_08TypeDescESt6vectorIS2_SaIS2_EEE4baseEv(ptr noundef nonnull align 8 dereferenceable(8) %0) #3
  %1 = load ptr, ptr %call, align 8
  %2 = load ptr, ptr %__rhs.addr, align 8
  %call1 = call noundef nonnull align 8 dereferenceable(8) ptr @_ZNK9__gnu_cxx17__normal_iteratorIPKN18OpenImageIO_v2_6_08TypeDescESt6vectorIS2_SaIS2_EEE4baseEv(ptr noundef nonnull align 8 dereferenceable(8) %2) #3
  %3 = load ptr, ptr %call1, align 8
  %cmp = icmp eq ptr %1, %3
  ret i1 %cmp
}

; Function Attrs: mustprogress nounwind uwtable
define linkonce_odr ptr @_ZNKSt6vectorIN18OpenImageIO_v2_6_08TypeDescESaIS1_EE3endEv(ptr noundef nonnull align 8 dereferenceable(24) %this) #4 comdat align 2 {
entry:
  %retval = alloca %"class.__gnu_cxx::__normal_iterator.162", align 8
  %this.addr = alloca ptr, align 8
  store ptr %this, ptr %this.addr, align 8
  %this1 = load ptr, ptr %this.addr, align 8
  %_M_impl = getelementptr inbounds %"struct.std::_Vector_base", ptr %this1, i32 0, i32 0
  %_M_finish = getelementptr inbounds %"struct.std::_Vector_base<OpenImageIO_v2_6_0::TypeDesc, std::allocator<OpenImageIO_v2_6_0::TypeDesc>>::_Vector_impl_data", ptr %_M_impl, i32 0, i32 1
  call void @_ZN9__gnu_cxx17__normal_iteratorIPKN18OpenImageIO_v2_6_08TypeDescESt6vectorIS2_SaIS2_EEEC2ERKS4_(ptr noundef nonnull align 8 dereferenceable(8) %retval, ptr noundef nonnull align 8 dereferenceable(8) %_M_finish) #3
  %coerce.dive = getelementptr inbounds %"class.__gnu_cxx::__normal_iterator.162", ptr %retval, i32 0, i32 0
  %0 = load ptr, ptr %coerce.dive, align 8
  ret ptr %0
}

; Function Attrs: mustprogress nounwind uwtable
define linkonce_odr ptr @_ZNKSt6vectorIN18OpenImageIO_v2_6_08TypeDescESaIS1_EE5beginEv(ptr noundef nonnull align 8 dereferenceable(24) %this) #4 comdat align 2 {
entry:
  %retval = alloca %"class.__gnu_cxx::__normal_iterator.162", align 8
  %this.addr = alloca ptr, align 8
  store ptr %this, ptr %this.addr, align 8
  %this1 = load ptr, ptr %this.addr, align 8
  %_M_impl = getelementptr inbounds %"struct.std::_Vector_base", ptr %this1, i32 0, i32 0
  %_M_start = getelementptr inbounds %"struct.std::_Vector_base<OpenImageIO_v2_6_0::TypeDesc, std::allocator<OpenImageIO_v2_6_0::TypeDesc>>::_Vector_impl_data", ptr %_M_impl, i32 0, i32 0
  call void @_ZN9__gnu_cxx17__normal_iteratorIPKN18OpenImageIO_v2_6_08TypeDescESt6vectorIS2_SaIS2_EEEC2ERKS4_(ptr noundef nonnull align 8 dereferenceable(8) %retval, ptr noundef nonnull align 8 dereferenceable(8) %_M_start) #3
  %coerce.dive = getelementptr inbounds %"class.__gnu_cxx::__normal_iterator.162", ptr %retval, i32 0, i32 0
  %0 = load ptr, ptr %coerce.dive, align 8
  ret ptr %0
}

; Function Attrs: mustprogress nounwind uwtable
define linkonce_odr noundef i64 @_ZNSt14numeric_limitsImE3maxEv() #4 comdat align 2 {
entry:
  ret i64 -1
}

; Function Attrs: mustprogress nounwind uwtable
define linkonce_odr noundef i64 @_ZNK18OpenImageIO_v2_6_08TypeDesc4sizeEv(ptr noundef nonnull align 4 dereferenceable(8) %this) #4 comdat align 2 {
entry:
  %this.addr = alloca ptr, align 8
  %a = alloca i64, align 8
  store ptr %this, ptr %this.addr, align 8
  %this1 = load ptr, ptr %this.addr, align 8
  %arraylen = getelementptr inbounds %"struct.OpenImageIO_v2_6_0::TypeDesc", ptr %this1, i32 0, i32 4
  %0 = load i32, ptr %arraylen, align 4
  %cmp = icmp sgt i32 %0, 0
  br i1 %cmp, label %cond.true, label %cond.false

cond.true:                                        ; preds = %entry
  %arraylen2 = getelementptr inbounds %"struct.OpenImageIO_v2_6_0::TypeDesc", ptr %this1, i32 0, i32 4
  %1 = load i32, ptr %arraylen2, align 4
  br label %cond.end

cond.false:                                       ; preds = %entry
  br label %cond.end

cond.end:                                         ; preds = %cond.false, %cond.true
  %cond = phi i32 [ %1, %cond.true ], [ 1, %cond.false ]
  %conv = sext i32 %cond to i64
  store i64 %conv, ptr %a, align 8
  %2 = load i64, ptr %a, align 8
  %call = call noundef i64 @_ZNK18OpenImageIO_v2_6_08TypeDesc11elementsizeEv(ptr noundef nonnull align 4 dereferenceable(8) %this1) #3
  %mul = mul i64 %2, %call
  ret i64 %mul
}

; Function Attrs: mustprogress nounwind uwtable
define linkonce_odr noundef nonnull align 4 dereferenceable(8) ptr @_ZNKSt6vectorIN18OpenImageIO_v2_6_08TypeDescESaIS1_EEixEm(ptr noundef nonnull align 8 dereferenceable(24) %this, i64 noundef %__n) #4 comdat align 2 {
entry:
  %this.addr = alloca ptr, align 8
  %__n.addr = alloca i64, align 8
  store ptr %this, ptr %this.addr, align 8
  store i64 %__n, ptr %__n.addr, align 8
  %this1 = load ptr, ptr %this.addr, align 8
  %_M_impl = getelementptr inbounds %"struct.std::_Vector_base", ptr %this1, i32 0, i32 0
  %_M_start = getelementptr inbounds %"struct.std::_Vector_base<OpenImageIO_v2_6_0::TypeDesc, std::allocator<OpenImageIO_v2_6_0::TypeDesc>>::_Vector_impl_data", ptr %_M_impl, i32 0, i32 0
  %0 = load ptr, ptr %_M_start, align 8
  %1 = load i64, ptr %__n.addr, align 8
  %add.ptr = getelementptr inbounds %"struct.OpenImageIO_v2_6_0::TypeDesc", ptr %0, i64 %1
  ret ptr %add.ptr
}

; Function Attrs: mustprogress nounwind uwtable
define linkonce_odr hidden noundef i32 @_ZN18OpenImageIO_v2_6_014clamped_mult32Ejj(i32 noundef %a, i32 noundef %b) #4 comdat {
entry:
  %a.addr = alloca i32, align 4
  %b.addr = alloca i32, align 4
  %Err = alloca i32, align 4
  %r = alloca i64, align 8
  store i32 %a, ptr %a.addr, align 4
  store i32 %b, ptr %b.addr, align 4
  store i32 -1, ptr %Err, align 4
  %0 = load i32, ptr %a.addr, align 4
  %conv = zext i32 %0 to i64
  %1 = load i32, ptr %b.addr, align 4
  %conv1 = zext i32 %1 to i64
  %mul = mul i64 %conv, %conv1
  store i64 %mul, ptr %r, align 8
  %2 = load i64, ptr %r, align 8
  %cmp = icmp ult i64 %2, 4294967295
  br i1 %cmp, label %cond.true, label %cond.false

cond.true:                                        ; preds = %entry
  %3 = load i64, ptr %r, align 8
  %conv2 = trunc i64 %3 to i32
  br label %cond.end

cond.false:                                       ; preds = %entry
  br label %cond.end

cond.end:                                         ; preds = %cond.false, %cond.true
  %cond = phi i32 [ %conv2, %cond.true ], [ -1, %cond.false ]
  ret i32 %cond
}

; Function Attrs: mustprogress nounwind uwtable
define linkonce_odr noundef i64 @_ZNK18OpenImageIO_v2_6_09ImageSpec13channel_bytesEv(ptr noundef nonnull align 8 dereferenceable(160) %this) #4 comdat align 2 {
entry:
  %this.addr = alloca ptr, align 8
  store ptr %this, ptr %this.addr, align 8
  %this1 = load ptr, ptr %this.addr, align 8
  %format = getelementptr inbounds %"class.OpenImageIO_v2_6_0::ImageSpec", ptr %this1, i32 0, i32 16
  %call = call noundef i64 @_ZNK18OpenImageIO_v2_6_08TypeDesc4sizeEv(ptr noundef nonnull align 4 dereferenceable(8) %format) #3
  ret i64 %call
}

; Function Attrs: mustprogress nounwind uwtable
define linkonce_odr noundef zeroext i1 @_ZNKSt6vectorIN18OpenImageIO_v2_6_08TypeDescESaIS1_EE5emptyEv(ptr noundef nonnull align 8 dereferenceable(24) %this) #4 comdat align 2 {
entry:
  %this.addr = alloca ptr, align 8
  %ref.tmp = alloca %"class.__gnu_cxx::__normal_iterator.162", align 8
  %ref.tmp2 = alloca %"class.__gnu_cxx::__normal_iterator.162", align 8
  store ptr %this, ptr %this.addr, align 8
  %this1 = load ptr, ptr %this.addr, align 8
  %call = call ptr @_ZNKSt6vectorIN18OpenImageIO_v2_6_08TypeDescESaIS1_EE5beginEv(ptr noundef nonnull align 8 dereferenceable(24) %this1) #3
  %coerce.dive = getelementptr inbounds %"class.__gnu_cxx::__normal_iterator.162", ptr %ref.tmp, i32 0, i32 0
  store ptr %call, ptr %coerce.dive, align 8
  %call3 = call ptr @_ZNKSt6vectorIN18OpenImageIO_v2_6_08TypeDescESaIS1_EE3endEv(ptr noundef nonnull align 8 dereferenceable(24) %this1) #3
  %coerce.dive4 = getelementptr inbounds %"class.__gnu_cxx::__normal_iterator.162", ptr %ref.tmp2, i32 0, i32 0
  store ptr %call3, ptr %coerce.dive4, align 8
  %call5 = call noundef zeroext i1 @_ZN9__gnu_cxxeqIPKN18OpenImageIO_v2_6_08TypeDescESt6vectorIS2_SaIS2_EEEEbRKNS_17__normal_iteratorIT_T0_EESD_(ptr noundef nonnull align 8 dereferenceable(8) %ref.tmp, ptr noundef nonnull align 8 dereferenceable(8) %ref.tmp2) #3
  ret i1 %call5
}

; Function Attrs: noreturn nounwind uwtable
define linkonce_odr hidden void @__clang_call_terminate(ptr noundef %0) #8 comdat {
  %2 = call ptr @__cxa_begin_catch(ptr %0) #3
  call void @_ZSt9terminatev() #21
  unreachable
}

; Function Attrs: mustprogress nounwind uwtable
define linkonce_odr hidden noundef i64 @_ZN18OpenImageIO_v2_6_014clamped_mult64Emm(i64 noundef %a, i64 noundef %b) #4 comdat {
entry:
  %retval = alloca i64, align 8
  %a.addr = alloca i64, align 8
  %b.addr = alloca i64, align 8
  %ab = alloca i64, align 8
  store i64 %a, ptr %a.addr, align 8
  store i64 %b, ptr %b.addr, align 8
  %0 = load i64, ptr %a.addr, align 8
  %1 = load i64, ptr %b.addr, align 8
  %mul = mul i64 %0, %1
  store i64 %mul, ptr %ab, align 8
  %2 = load i64, ptr %b.addr, align 8
  %tobool = icmp ne i64 %2, 0
  br i1 %tobool, label %land.lhs.true, label %if.else

land.lhs.true:                                    ; preds = %entry
  %3 = load i64, ptr %ab, align 8
  %4 = load i64, ptr %b.addr, align 8
  %div = udiv i64 %3, %4
  %5 = load i64, ptr %a.addr, align 8
  %cmp = icmp ne i64 %div, %5
  br i1 %cmp, label %if.then, label %if.else

if.then:                                          ; preds = %land.lhs.true
  %call = call noundef i64 @_ZNSt14numeric_limitsImE3maxEv() #3
  store i64 %call, ptr %retval, align 8
  br label %return

if.else:                                          ; preds = %land.lhs.true, %entry
  %6 = load i64, ptr %ab, align 8
  store i64 %6, ptr %retval, align 8
  br label %return

return:                                           ; preds = %if.else, %if.then
  %7 = load i64, ptr %retval, align 8
  ret i64 %7
}

; Function Attrs: mustprogress nounwind uwtable
define noundef i64 @_ZNK18OpenImageIO_v2_6_09ImageSpec11pixel_bytesEb(ptr noundef nonnull align 8 dereferenceable(160) %this, i1 noundef zeroext %native) #4 align 2 personality ptr @__gxx_personality_v0 {
entry:
  %retval = alloca i64, align 8
  %this.addr = alloca ptr, align 8
  %native.addr = alloca i8, align 1
  %sum = alloca i64, align 8
  %i = alloca i32, align 4
  store ptr %this, ptr %this.addr, align 8
  %frombool = zext i1 %native to i8
  store i8 %frombool, ptr %native.addr, align 1
  %this1 = load ptr, ptr %this.addr, align 8
  %nchannels = getelementptr inbounds %"class.OpenImageIO_v2_6_0::ImageSpec", ptr %this1, i32 0, i32 15
  %0 = load i32, ptr %nchannels, align 4
  %cmp = icmp slt i32 %0, 0
  br i1 %cmp, label %if.then, label %if.end

if.then:                                          ; preds = %entry
  store i64 0, ptr %retval, align 8
  br label %return

if.end:                                           ; preds = %entry
  %1 = load i8, ptr %native.addr, align 1
  %tobool = trunc i8 %1 to i1
  br i1 %tobool, label %lor.lhs.false, label %if.then2

lor.lhs.false:                                    ; preds = %if.end
  %channelformats = getelementptr inbounds %"class.OpenImageIO_v2_6_0::ImageSpec", ptr %this1, i32 0, i32 17
  %call = call noundef zeroext i1 @_ZNKSt6vectorIN18OpenImageIO_v2_6_08TypeDescESaIS1_EE5emptyEv(ptr noundef nonnull align 8 dereferenceable(24) %channelformats) #3
  br i1 %call, label %if.then2, label %if.else

if.then2:                                         ; preds = %lor.lhs.false, %if.end
  %nchannels3 = getelementptr inbounds %"class.OpenImageIO_v2_6_0::ImageSpec", ptr %this1, i32 0, i32 15
  %2 = load i32, ptr %nchannels3, align 4
  %conv = sext i32 %2 to i64
  %conv4 = trunc i64 %conv to i32
  %call5 = call noundef i64 @_ZNK18OpenImageIO_v2_6_09ImageSpec13channel_bytesEv(ptr noundef nonnull align 8 dereferenceable(160) %this1) #3
  %conv6 = trunc i64 %call5 to i32
  %call7 = invoke noundef i32 @_ZN18OpenImageIO_v2_6_014clamped_mult32Ejj(i32 noundef %conv4, i32 noundef %conv6)
          to label %invoke.cont unwind label %terminate.lpad

invoke.cont:                                      ; preds = %if.then2
  %conv8 = zext i32 %call7 to i64
  store i64 %conv8, ptr %retval, align 8
  br label %return

if.else:                                          ; preds = %lor.lhs.false
  store i64 0, ptr %sum, align 8
  store i32 0, ptr %i, align 4
  br label %for.cond

for.cond:                                         ; preds = %for.inc, %if.else
  %3 = load i32, ptr %i, align 4
  %nchannels9 = getelementptr inbounds %"class.OpenImageIO_v2_6_0::ImageSpec", ptr %this1, i32 0, i32 15
  %4 = load i32, ptr %nchannels9, align 4
  %cmp10 = icmp slt i32 %3, %4
  br i1 %cmp10, label %for.body, label %for.end

for.body:                                         ; preds = %for.cond
  %channelformats11 = getelementptr inbounds %"class.OpenImageIO_v2_6_0::ImageSpec", ptr %this1, i32 0, i32 17
  %5 = load i32, ptr %i, align 4
  %conv12 = sext i32 %5 to i64
  %call13 = call noundef nonnull align 4 dereferenceable(8) ptr @_ZNKSt6vectorIN18OpenImageIO_v2_6_08TypeDescESaIS1_EEixEm(ptr noundef nonnull align 8 dereferenceable(24) %channelformats11, i64 noundef %conv12) #3
  %call14 = call noundef i64 @_ZNK18OpenImageIO_v2_6_08TypeDesc4sizeEv(ptr noundef nonnull align 4 dereferenceable(8) %call13) #3
  %6 = load i64, ptr %sum, align 8
  %add = add i64 %6, %call14
  store i64 %add, ptr %sum, align 8
  br label %for.inc

for.inc:                                          ; preds = %for.body
  %7 = load i32, ptr %i, align 4
  %inc = add nsw i32 %7, 1
  store i32 %inc, ptr %i, align 4
  br label %for.cond, !llvm.loop !6

for.end:                                          ; preds = %for.cond
  %8 = load i64, ptr %sum, align 8
  store i64 %8, ptr %retval, align 8
  br label %return

return:                                           ; preds = %for.end, %invoke.cont, %if.then
  %9 = load i64, ptr %retval, align 8
  ret i64 %9

terminate.lpad:                                   ; preds = %if.then2
  %10 = landingpad { ptr, i32 }
          catch ptr null
  %11 = extractvalue { ptr, i32 } %10, 0
  call void @__clang_call_terminate(ptr %11) #21
  unreachable
}

; Function Attrs: mustprogress nounwind uwtable
define noundef i64 @_ZNK18OpenImageIO_v2_6_09ImageSpec14scanline_bytesEb(ptr noundef nonnull align 8 dereferenceable(160) %this, i1 noundef zeroext %native) #4 align 2 personality ptr @__gxx_personality_v0 {
entry:
  %retval = alloca i64, align 8
  %this.addr = alloca ptr, align 8
  %native.addr = alloca i8, align 1
  store ptr %this, ptr %this.addr, align 8
  %frombool = zext i1 %native to i8
  store i8 %frombool, ptr %native.addr, align 1
  %this1 = load ptr, ptr %this.addr, align 8
  %width = getelementptr inbounds %"class.OpenImageIO_v2_6_0::ImageSpec", ptr %this1, i32 0, i32 3
  %0 = load i32, ptr %width, align 4
  %cmp = icmp slt i32 %0, 0
  br i1 %cmp, label %if.then, label %if.end

if.then:                                          ; preds = %entry
  store i64 0, ptr %retval, align 8
  br label %return

if.end:                                           ; preds = %entry
  %width2 = getelementptr inbounds %"class.OpenImageIO_v2_6_0::ImageSpec", ptr %this1, i32 0, i32 3
  %1 = load i32, ptr %width2, align 4
  %conv = sext i32 %1 to i64
  %2 = load i8, ptr %native.addr, align 1
  %tobool = trunc i8 %2 to i1
  %call = call noundef i64 @_ZNK18OpenImageIO_v2_6_09ImageSpec11pixel_bytesEb(ptr noundef nonnull align 8 dereferenceable(160) %this1, i1 noundef zeroext %tobool) #3
  %call3 = invoke noundef i64 @_ZN18OpenImageIO_v2_6_014clamped_mult64Emm(i64 noundef %conv, i64 noundef %call)
          to label %invoke.cont unwind label %terminate.lpad

invoke.cont:                                      ; preds = %if.end
  store i64 %call3, ptr %retval, align 8
  br label %return

return:                                           ; preds = %invoke.cont, %if.then
  %3 = load i64, ptr %retval, align 8
  ret i64 %3

terminate.lpad:                                   ; preds = %if.end
  %4 = landingpad { ptr, i32 }
          catch ptr null
  %5 = extractvalue { ptr, i32 } %4, 0
  call void @__clang_call_terminate(ptr %5) #21
  unreachable
}