; Function Attrs: mustprogress nounwind uwtable
define noundef i64 @_ZNK18OpenImageIO_v2_6_09ImageSpec14scanline_bytesEb(ptr noundef nonnull align 8 dereferenceable(160) %this, i1 noundef zeroext %native) local_unnamed_addr #3 align 2 personality ptr @__gxx_personality_v0 {
entry:
  %width = getelementptr inbounds i8, ptr %this, i64 12
  %0 = load i32, ptr %width, align 4
  %cmp = icmp slt i32 %0, 0
  br i1 %cmp, label %return, label %if.end

if.end:                                           ; preds = %entry
  %conv = zext nneg i32 %0 to i64
  %nchannels.i = getelementptr inbounds i8, ptr %this, i64 60
  %1 = load i32, ptr %nchannels.i, align 4
  %cmp.i = icmp slt i32 %1, 0
  br i1 %cmp.i, label %_ZNK18OpenImageIO_v2_6_09ImageSpec11pixel_bytesEb.exit.thread, label %if.end.i

if.end.i:                                         ; preds = %if.end
  br i1 %native, label %lor.lhs.false.i, label %if.then2.i

lor.lhs.false.i:                                  ; preds = %if.end.i
  %channelformats.i = getelementptr inbounds i8, ptr %this, i64 72
  %2 = load ptr, ptr %channelformats.i, align 8
  %_M_finish.i.i.i = getelementptr inbounds i8, ptr %this, i64 80
  %3 = load ptr, ptr %_M_finish.i.i.i, align 8
  %cmp.i.i.i = icmp eq ptr %2, %3
  br i1 %cmp.i.i.i, label %if.then2.i, label %for.cond.preheader.i

for.cond.preheader.i:                             ; preds = %lor.lhs.false.i
  %cmp106.not.i = icmp eq i32 %1, 0
  br i1 %cmp106.not.i, label %_ZNK18OpenImageIO_v2_6_09ImageSpec11pixel_bytesEb.exit.thread, label %for.body.i

if.then2.i:                                       ; preds = %lor.lhs.false.i, %if.end.i
  %format.i.i = getelementptr inbounds i8, ptr %this, i64 64
  %arraylen.i.i.i = getelementptr inbounds i8, ptr %this, i64 68
  %4 = load i32, ptr %arraylen.i.i.i, align 4
  %narrow.i.i.i = tail call i32 @llvm.smax.i32(i32 %4, i32 1)
  %aggregate.i.i.i.i = getelementptr inbounds i8, ptr %this, i64 65
  %5 = load i8, ptr %aggregate.i.i.i.i, align 1
  %conv.i.i.i.i = zext i8 %5 to i64
  %call.i.i.i.i = tail call noundef i64 @_ZNK18OpenImageIO_v2_6_08TypeDesc8basesizeEv(ptr noundef nonnull align 4 dereferenceable(8) %format.i.i) #28
  %mul.i.i.i.i = mul i64 %call.i.i.i.i, %conv.i.i.i.i
  %6 = trunc i64 %mul.i.i.i.i to i32
  %conv6.i = mul i32 %narrow.i.i.i, %6
  %conv.i.i = zext nneg i32 %1 to i64
  %conv1.i.i = zext i32 %conv6.i to i64
  %mul.i.i = mul nuw nsw i64 %conv1.i.i, %conv.i.i
  %cond2.i.i = tail call i64 @llvm.umin.i64(i64 %mul.i.i, i64 4294967295)
  br label %_ZNK18OpenImageIO_v2_6_09ImageSpec11pixel_bytesEb.exit

for.body.i:                                       ; preds = %for.cond.preheader.i, %for.body.i
  %indvars.iv.i = phi i64 [ %indvars.iv.next.i, %for.body.i ], [ 0, %for.cond.preheader.i ]
  %sum.07.i = phi i64 [ %add.i, %for.body.i ], [ 0, %for.cond.preheader.i ]
  %7 = load ptr, ptr %channelformats.i, align 8
  %add.ptr.i.i = getelementptr inbounds %"struct.OpenImageIO_v2_6_0::TypeDesc", ptr %7, i64 %indvars.iv.i
  %arraylen.i.i = getelementptr inbounds i8, ptr %add.ptr.i.i, i64 4
  %8 = load i32, ptr %arraylen.i.i, align 4
  %narrow.i.i = tail call i32 @llvm.smax.i32(i32 %8, i32 1)
  %spec.select.i.i = zext nneg i32 %narrow.i.i to i64
  %aggregate.i.i.i = getelementptr inbounds i8, ptr %add.ptr.i.i, i64 1
  %9 = load i8, ptr %aggregate.i.i.i, align 1
  %conv.i.i.i = zext i8 %9 to i64
  %call.i.i.i = tail call noundef i64 @_ZNK18OpenImageIO_v2_6_08TypeDesc8basesizeEv(ptr noundef nonnull align 4 dereferenceable(8) %add.ptr.i.i) #28
  %mul.i.i4.i = mul i64 %call.i.i.i, %conv.i.i.i
  %mul.i5.i = mul i64 %mul.i.i4.i, %spec.select.i.i
  %add.i = add i64 %mul.i5.i, %sum.07.i
  %indvars.iv.next.i = add nuw nsw i64 %indvars.iv.i, 1
  %10 = load i32, ptr %nchannels.i, align 4
  %11 = sext i32 %10 to i64
  %cmp10.i = icmp slt i64 %indvars.iv.next.i, %11
  br i1 %cmp10.i, label %for.body.i, label %_ZNK18OpenImageIO_v2_6_09ImageSpec11pixel_bytesEb.exit, !llvm.loop !11

_ZNK18OpenImageIO_v2_6_09ImageSpec11pixel_bytesEb.exit: ; preds = %for.body.i, %if.then2.i
  %retval.0.i = phi i64 [ %cond2.i.i, %if.then2.i ], [ %add.i, %for.body.i ]
  %retval.0.i.fr = freeze i64 %retval.0.i
  %mul5.i = tail call { i64, i1 } @llvm.umul.with.overflow.i64(i64 %retval.0.i.fr, i64 %conv)
  %mul.val.i = extractvalue { i64, i1 } %mul5.i, 0
  %tobool.not.i = icmp eq i64 %retval.0.i.fr, 0
  %mul.ov.i = extractvalue { i64, i1 } %mul5.i, 1
  %spec.select.i = select i1 %mul.ov.i, i64 -1, i64 %mul.val.i
  br i1 %tobool.not.i, label %_ZNK18OpenImageIO_v2_6_09ImageSpec11pixel_bytesEb.exit.thread, label %return

_ZNK18OpenImageIO_v2_6_09ImageSpec11pixel_bytesEb.exit.thread: ; preds = %for.cond.preheader.i, %if.end, %_ZNK18OpenImageIO_v2_6_09ImageSpec11pixel_bytesEb.exit
  br label %return

return:                                           ; preds = %_ZNK18OpenImageIO_v2_6_09ImageSpec11pixel_bytesEb.exit.thread, %_ZNK18OpenImageIO_v2_6_09ImageSpec11pixel_bytesEb.exit, %entry
  %retval.0 = phi i64 [ 0, %entry ], [ 0, %_ZNK18OpenImageIO_v2_6_09ImageSpec11pixel_bytesEb.exit.thread ], [ %spec.select.i, %_ZNK18OpenImageIO_v2_6_09ImageSpec11pixel_bytesEb.exit ]
  ret i64 %retval.0
}